; Function Attrs: null_pointer_is_valid sspstrong uwtable
define internal fastcc void @glxIsQueryARB(ptr noundef %0, ptr noundef captures(none) %1, ptr noundef %2, i32 noundef %3) unnamed_addr #1 {
  %5 = load i32, ptr @hf_x11_glx_IsQueryARB_context_tag, align 4
  %6 = load i32, ptr %1, align 4
  %7 = tail call ptr @proto_tree_add_item(ptr noundef %2, i32 noundef %5, ptr noundef %0, i32 noundef %6, i32 noundef 4, i32 noundef %3)
  %8 = load i32, ptr %1, align 4
  %9 = add i32 %8, 4
  store i32 %9, ptr %1, align 4
  %10 = load i32, ptr @hf_x11_glx_IsQueryARB_id, align 4
  %11 = tail call ptr @proto_tree_add_item(ptr noundef %2, i32 noundef %10, ptr noundef %0, i32 noundef %9, i32 noundef 4, i32 noundef %3)
  %12 = load i32, ptr %1, align 4
  %13 = add i32 %12, 4
  store i32 %13, ptr %1, align 4
  ret void
}